; Function Attrs: inlinehint nofree norecurse nosync nounwind memory(argmem: readwrite) uwtable
define internal void @transpose_block_16_c(ptr noundef readonly captures(none) %0, i64 noundef %1, ptr noundef writeonly captures(none) %2, i64 noundef %3, i32 noundef %4, i32 noundef %5) #6 {
  %7 = icmp sgt i32 %5, 0
  %8 = icmp sgt i32 %4, 0
  %or.cond = and i1 %7, %8
  br i1 %or.cond, label %.preheader.us.preheader, label %._crit_edge20

.preheader.us.preheader:                          ; preds = %6
  %wide.trip.count = zext nneg i32 %4 to i64
  br label %.preheader.us

.preheader.us:                                    ; preds = %.preheader.us.preheader, %._crit_edge.us
  %.019.us = phi i32 [ %15, %._crit_edge.us ], [ 0, %.preheader.us.preheader ]
  %.01418.us = phi ptr [ %17, %._crit_edge.us ], [ %0, %.preheader.us.preheader ]
  %.01517.us = phi ptr [ %16, %._crit_edge.us ], [ %2, %.preheader.us.preheader ]
  br label %9

9:                                                ; preds = %.preheader.us, %9
  %indvars.iv = phi i64 [ 0, %.preheader.us ], [ %indvars.iv.next, %9 ]
  %10 = mul nsw i64 %1, %indvars.iv
  %11 = getelementptr inbounds i8, ptr %.01418.us, i64 %10
  %12 = load i16, ptr %11, align 2, !tbaa !78
  %13 = shl nuw nsw i64 %indvars.iv, 1
  %14 = getelementptr inbounds nuw i8, ptr %.01517.us, i64 %13
  store i16 %12, ptr %14, align 2, !tbaa !78
  %indvars.iv.next = add nuw nsw i64 %indvars.iv, 1
  %exitcond.not = icmp eq i64 %indvars.iv.next, %wide.trip.count
  br i1 %exitcond.not, label %._crit_edge.us, label %9, !llvm.loop !80

._crit_edge.us:                                   ; preds = %9
  %15 = add nuw nsw i32 %.019.us, 1
  %16 = getelementptr inbounds i8, ptr %.01517.us, i64 %3
  %17 = getelementptr inbounds nuw i8, ptr %.01418.us, i64 2
  %exitcond23.not = icmp eq i32 %15, %5
  br i1 %exitcond23.not, label %._crit_edge20, label %.preheader.us, !llvm.loop !81

._crit_edge20:                                    ; preds = %._crit_edge.us, %6
  ret void
}